target datalayout = "e-m:e-p270:32:32-p271:32:32-p272:64:64-i64:64-i128:128-f80:128-n8:16:32:64-S128"
target triple = "x86_64-pc-linux-gnu"

%"class.llvm::InstructionCost" = type <{ i64, i32, [4 x i8] }>
%"struct.llvm::Align" = type { i8 }
%"struct.llvm::MaybeAlign" = type { %"class.std::optional.0" }
%"class.std::optional.0" = type { %"struct.std::_Optional_base.1" }
%"struct.std::_Optional_base.1" = type { %"struct.std::_Optional_payload.3" }
%"struct.std::_Optional_payload.3" = type { %"struct.std::_Optional_payload_base.4" }
%"struct.std::_Optional_payload_base.4" = type { %"union.std::_Optional_payload_base<llvm::Align>::_Storage", i8 }
%"union.std::_Optional_payload_base<llvm::Align>::_Storage" = type { %"struct.std::_Optional_payload_base<llvm::Align>::_Empty_byte" }
%"struct.std::_Optional_payload_base<llvm::Align>::_Empty_byte" = type { i8 }
%"struct.llvm::TargetTransformInfo::OperandValueInfo" = type { i32, i32 }

; Function Attrs: mustprogress nounwind uwtable
define linkonce_odr hidden void @_ZNSt22_Optional_payload_baseIN4llvm5AlignEE8_StorageIS1_Lb1EEC2IJRS1_EEESt10in_place_tDpOT_(ptr noundef nonnull align 1 dereferenceable(1) %0, ptr noundef nonnull align 1 dereferenceable(1) %1) unnamed_addr #1 comdat align 2 {
  %3 = alloca ptr, align 8
  %4 = alloca ptr, align 8
  store ptr %0, ptr %3, align 8
  store ptr %1, ptr %4, align 8
  %5 = load ptr, ptr %3, align 8
  %6 = load ptr, ptr %4, align 8
  call void @llvm.memcpy.p0.p0.i64(ptr align 1 %5, ptr align 1 %6, i64 1, i1 false)
  ret void
}

; Function Attrs: mustprogress nounwind uwtable
define linkonce_odr hidden void @_ZNSt22_Optional_payload_baseIN4llvm5AlignEEC2IJRS1_EEESt10in_place_tDpOT_(ptr noundef nonnull align 1 dereferenceable(2) %0, ptr noundef nonnull align 1 dereferenceable(1) %1) unnamed_addr #1 comdat align 2 {
  %3 = alloca ptr, align 8
  %4 = alloca ptr, align 8
  store ptr %0, ptr %3, align 8
  store ptr %1, ptr %4, align 8
  %5 = load ptr, ptr %3, align 8
  %6 = getelementptr inbounds nuw %"struct.std::_Optional_payload_base.4", ptr %5, i32 0, i32 0
  %7 = load ptr, ptr %4, align 8
  call void @_ZNSt22_Optional_payload_baseIN4llvm5AlignEE8_StorageIS1_Lb1EEC2IJRS1_EEESt10in_place_tDpOT_(ptr noundef nonnull align 1 dereferenceable(1) %6, ptr noundef nonnull align 1 dereferenceable(1) %7)
  %8 = getelementptr inbounds nuw %"struct.std::_Optional_payload_base.4", ptr %5, i32 0, i32 1
  store i8 1, ptr %8, align 1
  ret void
}

; Function Attrs: mustprogress nounwind uwtable
define linkonce_odr hidden void @_ZNSt17_Optional_payloadIN4llvm5AlignELb1ELb1ELb1EECI2St22_Optional_payload_baseIS1_EIJRS1_EEESt10in_place_tDpOT_(ptr noundef nonnull align 1 dereferenceable(2) %0, ptr noundef nonnull align 1 dereferenceable(1) %1) unnamed_addr #1 comdat align 2 {
  %3 = alloca ptr, align 8
  %4 = alloca ptr, align 8
  store ptr %0, ptr %3, align 8
  store ptr %1, ptr %4, align 8
  %5 = load ptr, ptr %3, align 8
  %6 = load ptr, ptr %4, align 8
  call void @_ZNSt22_Optional_payload_baseIN4llvm5AlignEEC2IJRS1_EEESt10in_place_tDpOT_(ptr noundef nonnull align 1 dereferenceable(2) %5, ptr noundef nonnull align 1 dereferenceable(1) %6)
  ret void
}

; Function Attrs: mustprogress nounwind uwtable
define linkonce_odr hidden void @_ZNSt14_Optional_baseIN4llvm5AlignELb1ELb1EEC2IJRS1_ETnNSt9enable_ifIX18is_constructible_vIS1_DpT_EEbE4typeELb0EEESt10in_place_tDpOS6_(ptr noundef nonnull align 1 dereferenceable(2) %0, ptr noundef nonnull align 1 dereferenceable(1) %1) unnamed_addr #1 comdat align 2 {
  %3 = alloca ptr, align 8
  %4 = alloca ptr, align 8
  store ptr %0, ptr %3, align 8
  store ptr %1, ptr %4, align 8
  %5 = load ptr, ptr %3, align 8
  %6 = getelementptr inbounds nuw %"struct.std::_Optional_base.1", ptr %5, i32 0, i32 0
  %7 = load ptr, ptr %4, align 8
  call void @_ZNSt17_Optional_payloadIN4llvm5AlignELb1ELb1ELb1EECI2St22_Optional_payload_baseIS1_EIJRS1_EEESt10in_place_tDpOT_(ptr noundef nonnull align 1 dereferenceable(2) %6, ptr noundef nonnull align 1 dereferenceable(1) %7)
  ret void
}

; Function Attrs: mustprogress nounwind uwtable
define linkonce_odr hidden void @_ZNSt8optionalIN4llvm5AlignEEC2IRS1_TnNSt9enable_ifIX7__and_vISt6__not_ISt7is_sameIS2_NSt9remove_cvINSt16remove_referenceIT_E4typeEE4typeEEES6_IS7_ISt10in_place_tSE_EESt16is_constructibleIS1_JSA_EESt14is_convertibleISA_S1_EEEbE4typeELb1EEEOSA_(ptr noundef nonnull align 1 dereferenceable(2) %0, ptr noundef nonnull align 1 dereferenceable(1) %1) unnamed_addr #1 comdat align 2 {
  %3 = alloca ptr, align 8
  %4 = alloca ptr, align 8
  store ptr %0, ptr %3, align 8
  store ptr %1, ptr %4, align 8
  %5 = load ptr, ptr %3, align 8
  %6 = load ptr, ptr %4, align 8
  call void @_ZNSt14_Optional_baseIN4llvm5AlignELb1ELb1EEC2IJRS1_ETnNSt9enable_ifIX18is_constructible_vIS1_DpT_EEbE4typeELb0EEESt10in_place_tDpOS6_(ptr noundef nonnull align 1 dereferenceable(2) %5, ptr noundef nonnull align 1 dereferenceable(1) %6)
  ret void
}

; Function Attrs: mustprogress nounwind uwtable
define linkonce_odr hidden void @_ZN4llvm10MaybeAlignC2ENS_5AlignE(ptr noundef nonnull align 1 dereferenceable(2) %0, i8 %1) unnamed_addr #1 comdat align 2 {
  %3 = alloca %"struct.llvm::Align", align 1
  %4 = alloca ptr, align 8
  %5 = getelementptr inbounds nuw %"struct.llvm::Align", ptr %3, i32 0, i32 0
  store i8 %1, ptr %5, align 1
  store ptr %0, ptr %4, align 8
  %6 = load ptr, ptr %4, align 8
  call void @_ZNSt8optionalIN4llvm5AlignEEC2IRS1_TnNSt9enable_ifIX7__and_vISt6__not_ISt7is_sameIS2_NSt9remove_cvINSt16remove_referenceIT_E4typeEE4typeEEES6_IS7_ISt10in_place_tSE_EESt16is_constructibleIS1_JSA_EESt14is_convertibleISA_S1_EEEbE4typeELb1EEEOSA_(ptr noundef nonnull align 1 dereferenceable(2) %6, ptr noundef nonnull align 1 dereferenceable(1) %3) #2
  ret void
}

; Function Attrs: mustprogress nounwind uwtable
define linkonce_odr hidden { i64, i32 } @_ZN4llvm16BasicTTIImplBaseINS_12RISCVTTIImplEE21getMaskedMemoryOpCostEjPNS_4TypeENS_5AlignEjNS_19TargetTransformInfo14TargetCostKindE(ptr noundef nonnull align 8 dereferenceable(16) %0, i32 noundef %1, ptr noundef %2, i8 %3, i32 noundef %4, i32 noundef %5) #1 comdat align 2 {
  %7 = alloca %"class.llvm::InstructionCost", align 8
  %8 = alloca %"struct.llvm::Align", align 1
  %9 = alloca ptr, align 8
  %10 = alloca i32, align 4
  %11 = alloca ptr, align 8
  %12 = alloca i32, align 4
  %13 = alloca i32, align 4
  %14 = alloca %"struct.llvm::Align", align 1
  %15 = alloca { i64, i32 }, align 8
  %16 = getelementptr inbounds nuw %"struct.llvm::Align", ptr %8, i32 0, i32 0
  store i8 %3, ptr %16, align 1
  store ptr %0, ptr %9, align 8
  store i32 %1, ptr %10, align 4
  store ptr %2, ptr %11, align 8
  store i32 %4, ptr %12, align 4
  store i32 %5, ptr %13, align 4
  %17 = load ptr, ptr %9, align 8
  %18 = load i32, ptr %10, align 4
  %19 = load ptr, ptr %11, align 8
  call void @llvm.memcpy.p0.p0.i64(ptr align 1 %14, ptr align 1 %8, i64 1, i1 false)
  %20 = load i32, ptr %13, align 4
  %21 = getelementptr inbounds nuw %"struct.llvm::Align", ptr %14, i32 0, i32 0
  %22 = load i8, ptr %21, align 1
  %23 = call { i64, i32 } @_ZN4llvm16BasicTTIImplBaseINS_12RISCVTTIImplEE27getCommonMaskedMemoryOpCostEjPNS_4TypeENS_5AlignEbbNS_19TargetTransformInfo14TargetCostKindEj(ptr noundef nonnull align 8 dereferenceable(16) %17, i32 noundef %18, ptr noundef %19, i8 %22, i1 noundef zeroext true, i1 noundef zeroext false, i32 noundef %20, i32 noundef 0)
  store { i64, i32 } %23, ptr %15, align 8
  call void @llvm.memcpy.p0.p0.i64(ptr align 8 %7, ptr align 8 %15, i64 12, i1 false)
  %24 = load { i64, i32 }, ptr %7, align 8
  ret { i64, i32 } %24
}

; Function Attrs: mustprogress nounwind uwtable
define dso_local { i64, i32 } @_ZN4llvm12RISCVTTIImpl21getMaskedMemoryOpCostEjPNS_4TypeENS_5AlignEjNS_19TargetTransformInfo14TargetCostKindE(ptr noundef nonnull align 8 dereferenceable(32) %0, i32 noundef %1, ptr noundef %2, i8 %3, i32 noundef %4, i32 noundef %5) #1 align 2 {
  %7 = alloca %"class.llvm::InstructionCost", align 8
  %8 = alloca %"struct.llvm::Align", align 1
  %9 = alloca ptr, align 8
  %10 = alloca i32, align 4
  %11 = alloca ptr, align 8
  %12 = alloca i32, align 4
  %13 = alloca i32, align 4
  %14 = alloca %"struct.llvm::Align", align 1
  %15 = alloca %"struct.llvm::Align", align 1
  %16 = alloca { i64, i32 }, align 8
  %17 = alloca %"struct.llvm::MaybeAlign", align 1
  %18 = alloca %"struct.llvm::Align", align 1
  %19 = alloca %"struct.llvm::TargetTransformInfo::OperandValueInfo", align 4
  %20 = alloca { i64, i32 }, align 8
  %21 = getelementptr inbounds nuw %"struct.llvm::Align", ptr %8, i32 0, i32 0
  store i8 %3, ptr %21, align 1
  store ptr %0, ptr %9, align 8
  store i32 %1, ptr %10, align 4
  store ptr %2, ptr %11, align 8
  store i32 %4, ptr %12, align 4
  store i32 %5, ptr %13, align 4
  %22 = load ptr, ptr %9, align 8
  %23 = load ptr, ptr %11, align 8
  call void @llvm.memcpy.p0.p0.i64(ptr align 1 %14, ptr align 1 %8, i64 1, i1 false)
  %24 = getelementptr inbounds nuw %"struct.llvm::Align", ptr %14, i32 0, i32 0
  %25 = load i8, ptr %24, align 1
  %26 = call noundef zeroext i1 @_ZN4llvm12RISCVTTIImpl22isLegalMaskedLoadStoreEPNS_4TypeENS_5AlignE(ptr noundef nonnull align 8 dereferenceable(32) %22, ptr noundef %23, i8 %25)
  br i1 %26, label %27, label %30

27:                                               ; preds = %6
  %28 = load i32, ptr %13, align 4
  %29 = icmp ne i32 %28, 0
  br i1 %29, label %30, label %38

30:                                               ; preds = %27, %6
  %31 = load i32, ptr %10, align 4
  %32 = load ptr, ptr %11, align 8
  call void @llvm.memcpy.p0.p0.i64(ptr align 1 %15, ptr align 1 %8, i64 1, i1 false)
  %33 = load i32, ptr %12, align 4
  %34 = load i32, ptr %13, align 4
  %35 = getelementptr inbounds nuw %"struct.llvm::Align", ptr %15, i32 0, i32 0
  %36 = load i8, ptr %35, align 1
  %37 = call { i64, i32 } @_ZN4llvm16BasicTTIImplBaseINS_12RISCVTTIImplEE21getMaskedMemoryOpCostEjPNS_4TypeENS_5AlignEjNS_19TargetTransformInfo14TargetCostKindE(ptr noundef nonnull align 8 dereferenceable(16) %22, i32 noundef %31, ptr noundef %32, i8 %36, i32 noundef %33, i32 noundef %34)
  store { i64, i32 } %37, ptr %16, align 8
  call void @llvm.memcpy.p0.p0.i64(ptr align 8 %7, ptr align 8 %16, i64 12, i1 false)
  br label %54

38:                                               ; preds = %27
  %39 = load i32, ptr %10, align 4
  %40 = load ptr, ptr %11, align 8
  call void @llvm.memcpy.p0.p0.i64(ptr align 1 %18, ptr align 1 %8, i64 1, i1 false)
  %41 = getelementptr inbounds nuw %"struct.llvm::Align", ptr %18, i32 0, i32 0
  %42 = load i8, ptr %41, align 1
  call void @_ZN4llvm10MaybeAlignC2ENS_5AlignE(ptr noundef nonnull align 1 dereferenceable(2) %17, i8 %42)
  %43 = load i32, ptr %12, align 4
  %44 = load i32, ptr %13, align 4
  %45 = getelementptr inbounds nuw %"struct.llvm::TargetTransformInfo::OperandValueInfo", ptr %19, i32 0, i32 0
  store i32 0, ptr %45, align 4
  %46 = getelementptr inbounds nuw %"struct.llvm::TargetTransformInfo::OperandValueInfo", ptr %19, i32 0, i32 1
  store i32 0, ptr %46, align 4
  %47 = getelementptr inbounds nuw %"struct.llvm::MaybeAlign", ptr %17, i32 0, i32 0
  %48 = getelementptr inbounds nuw %"class.std::optional.0", ptr %47, i32 0, i32 0
  %49 = getelementptr inbounds nuw %"struct.std::_Optional_base.1", ptr %48, i32 0, i32 0
  %50 = getelementptr inbounds nuw %"struct.std::_Optional_payload.3", ptr %49, i32 0, i32 0
  %51 = load i16, ptr %50, align 1
  %52 = load i64, ptr %19, align 4
  %53 = call { i64, i32 } @_ZN4llvm12RISCVTTIImpl15getMemoryOpCostEjPNS_4TypeENS_10MaybeAlignEjNS_19TargetTransformInfo14TargetCostKindENS4_16OperandValueInfoEPKNS_11InstructionE(ptr noundef nonnull align 8 dereferenceable(32) %22, i32 noundef %39, ptr noundef %40, i16 %51, i32 noundef %43, i32 noundef %44, i64 %52, ptr noundef null)
  store { i64, i32 } %53, ptr %20, align 8
  call void @llvm.memcpy.p0.p0.i64(ptr align 8 %7, ptr align 8 %20, i64 12, i1 false)
  br label %54

54:                                               ; preds = %38, %30
  %55 = load { i64, i32 }, ptr %7, align 8
  ret { i64, i32 } %55
}