; Function Attrs: mustprogress nounwind uwtable
define dso_local { i64, i32 } @_ZN4llvm12RISCVTTIImpl21getMaskedMemoryOpCostEjPNS_4TypeENS_5AlignEjNS_19TargetTransformInfo14TargetCostKindE(ptr noundef nonnull align 8 dereferenceable(32) %0, i32 noundef %1, ptr noundef %2, i8 %3, i32 noundef %4, i32 noundef %5) local_unnamed_addr #0 align 2 {
  %7 = tail call noundef zeroext i1 @_ZN4llvm12RISCVTTIImpl22isLegalMaskedLoadStoreEPNS_4TypeENS_5AlignE(ptr noundef nonnull align 8 dereferenceable(32) %0, ptr noundef %2, i8 %3)
  %8 = icmp eq i32 %5, 0
  %or.cond.not = and i1 %8, %7
  br i1 %or.cond.not, label %11, label %9

9:                                                ; preds = %6
  %10 = tail call { i64, i32 } @_ZN4llvm16BasicTTIImplBaseINS_12RISCVTTIImplEE27getCommonMaskedMemoryOpCostEjPNS_4TypeENS_5AlignEbbNS_19TargetTransformInfo14TargetCostKindEj(ptr noundef nonnull align 8 dereferenceable(16) %0, i32 noundef %1, ptr noundef %2, i8 %3, i1 noundef zeroext true, i1 noundef zeroext false, i32 noundef %5, i32 noundef 0)
  br label %13

11:                                               ; preds = %6
  %.sroa.0.0.insert.ext = zext i8 %3 to i16
  %.sroa.0.0.insert.insert = or disjoint i16 %.sroa.0.0.insert.ext, 256
  %12 = tail call { i64, i32 } @_ZN4llvm12RISCVTTIImpl15getMemoryOpCostEjPNS_4TypeENS_10MaybeAlignEjNS_19TargetTransformInfo14TargetCostKindENS4_16OperandValueInfoEPKNS_11InstructionE(ptr noundef nonnull align 8 dereferenceable(32) %0, i32 noundef %1, ptr noundef %2, i16 %.sroa.0.0.insert.insert, i32 noundef %4, i32 noundef 0, i64 0, ptr noundef null)
  br label %13

13:                                               ; preds = %11, %9
  %.pn = phi { i64, i32 } [ %10, %9 ], [ %12, %11 ]
  ret { i64, i32 } %.pn
}